; ModuleID = '44/1112.c'
source_filename = "44/1112.c"
target datalayout = "e-m:e-p270:32:32-p271:32:32-p272:64:64-i64:64-f80:128-n8:16:32:64-S128"
target triple = "x86_64-pc-linux-gnu"

@.str = private unnamed_addr constant [3 x i8] c"%d\00", align 1
@.str.1 = private unnamed_addr constant [2 x i8] c"-\00", align 1
@.str.2 = private unnamed_addr constant [4 x i8] c"%d\0A\00", align 1

; Function Attrs: noinline nounwind uwtable
define dso_local i32 @reverse(i32 %0) #0 {
  %2 = alloca i32, align 4
  %3 = alloca i32, align 4
  %4 = alloca i32, align 4
  %5 = alloca i32, align 4
  %6 = alloca i32, align 4
  %7 = alloca i32, align 4
  %8 = alloca [11 x i32], align 16
  store i32 %0, i32* %2, align 4
  store i32 0, i32* %5, align 4
  store i32 0, i32* %6, align 4
  br label %9

9:                                                ; preds = %37, %1
  %10 = load i32, i32* %2, align 4
  %11 = icmp sge i32 %10, 10
  br i1 %11, label %16, label %12

12:                                               ; preds = %9
  %13 = load i32, i32* %2, align 4
  %14 = srem i32 %13, 10
  %15 = icmp ne i32 %14, 0
  br label %16

16:                                               ; preds = %12, %9
  %17 = phi i1 [ true, %9 ], [ %15, %12 ]
  br i1 %17, label %18, label %38

18:                                               ; preds = %16
  %19 = load i32, i32* %2, align 4
  %20 = srem i32 %19, 10
  store i32 %20, i32* %4, align 4
  %21 = load i32, i32* %2, align 4
  %22 = sdiv i32 %21, 10
  store i32 %22, i32* %2, align 4
  %23 = load i32, i32* %5, align 4
  %24 = icmp eq i32 %23, 0
  br i1 %24, label %25, label %28

25:                                               ; preds = %18
  %26 = load i32, i32* %4, align 4
  %27 = icmp ne i32 %26, 0
  br i1 %27, label %31, label %28

28:                                               ; preds = %25, %18
  %29 = load i32, i32* %5, align 4
  %30 = icmp eq i32 %29, 1
  br i1 %30, label %31, label %37

31:                                               ; preds = %28, %25
  %32 = load i32, i32* %4, align 4
  %33 = load i32, i32* %6, align 4
  %34 = add nsw i32 %33, 1
  store i32 %34, i32* %6, align 4
  %35 = sext i32 %33 to i64
  %36 = getelementptr inbounds [11 x i32], [11 x i32]* %8, i64 0, i64 %35
  store i32 %32, i32* %36, align 4
  store i32 1, i32* %5, align 4
  br label %37

37:                                               ; preds = %31, %28
  br label %9

38:                                               ; preds = %16
  store i32 0, i32* %7, align 4
  store i32 0, i32* %3, align 4
  br label %39

39:                                               ; preds = %52, %38
  %40 = load i32, i32* %3, align 4
  %41 = load i32, i32* %6, align 4
  %42 = sub nsw i32 %41, 1
  %43 = icmp sle i32 %40, %42
  br i1 %43, label %44, label %55

44:                                               ; preds = %39
  %45 = load i32, i32* %7, align 4
  %46 = mul nsw i32 %45, 10
  %47 = load i32, i32* %3, align 4
  %48 = sext i32 %47 to i64
  %49 = getelementptr inbounds [11 x i32], [11 x i32]* %8, i64 0, i64 %48
  %50 = load i32, i32* %49, align 4
  %51 = add nsw i32 %46, %50
  store i32 %51, i32* %7, align 4
  br label %52

52:                                               ; preds = %44
  %53 = load i32, i32* %3, align 4
  %54 = add nsw i32 %53, 1
  store i32 %54, i32* %3, align 4
  br label %39

55:                                               ; preds = %39
  %56 = load i32, i32* %7, align 4
  ret i32 %56
}

; Function Attrs: noinline nounwind uwtable
define dso_local void @main() #0 {
  %1 = alloca i32, align 4
  %2 = alloca i32, align 4
  store i32 0, i32* %1, align 4
  br label %3

3:                                                ; preds = %13, %0
  %4 = call i32 (i8*, ...) @__isoc99_scanf(i8* getelementptr inbounds ([3 x i8], [3 x i8]* @.str, i64 0, i64 0), i32* %2)
  %5 = icmp eq i32 %4, 1
  br i1 %5, label %6, label %17

6:                                                ; preds = %3
  %7 = load i32, i32* %2, align 4
  %8 = icmp slt i32 %7, 0
  br i1 %8, label %9, label %13

9:                                                ; preds = %6
  %10 = load i32, i32* %2, align 4
  %11 = mul nsw i32 %10, -1
  store i32 %11, i32* %2, align 4
  %12 = call i32 (i8*, ...) @printf(i8* getelementptr inbounds ([2 x i8], [2 x i8]* @.str.1, i64 0, i64 0))
  br label %13

13:                                               ; preds = %9, %6
  %14 = load i32, i32* %2, align 4
  %15 = call i32 @reverse(i32 %14)
  %16 = call i32 (i8*, ...) @printf(i8* getelementptr inbounds ([4 x i8], [4 x i8]* @.str.2, i64 0, i64 0), i32 %15)
  br label %3

17:                                               ; preds = %3
  ret void
}

declare dso_local i32 @__isoc99_scanf(i8*, ...) #1

declare dso_local i32 @printf(i8*, ...) #1


!llvm.module.flags = !{!0}
!llvm.ident = !{!1}

!0 = !{i32 1, !"wchar_size", i32 4}
!1 = !{!"clang version 10.0.0-4ubuntu1 "}
